; Function Attrs: mustprogress nofree norecurse nosync nounwind willreturn memory(argmem: read) uwtable
define noundef nonnull align 2 dereferenceable(4) ptr @_ZNK3net17HpackHuffmanTable5EntryERKNS0_11DecodeTableEj(ptr noundef nonnull readonly align 8 captures(none) dereferenceable(100) %0, ptr noundef nonnull readonly align 8 captures(none) dereferenceable(16) %1, i32 noundef %2) local_unnamed_addr #1 align 2 personality ptr @__gxx_personality_v0 {
  %4 = getelementptr inbounds nuw i8, ptr %0, i64 24
  %5 = getelementptr inbounds nuw i8, ptr %1, i64 8
  %6 = load i64, ptr %5, align 8, !tbaa !73
  %7 = zext i32 %2 to i64
  %8 = load ptr, ptr %4, align 8, !tbaa !20
  %9 = getelementptr %"struct.net::HpackHuffmanTable::DecodeEntry", ptr %8, i64 %6
  %10 = getelementptr %"struct.net::HpackHuffmanTable::DecodeEntry", ptr %9, i64 %7
  ret ptr %10
}